target datalayout = "e-m:e-p270:32:32-p271:32:32-p272:64:64-i64:64-i128:128-f80:128-n8:16:32:64-S128"
target triple = "x86_64-pc-linux-gnu"

%struct.tok_state = type { ptr, ptr, ptr, i32, ptr, ptr, ptr, ptr, i32, ptr, i32, i32, [100 x i32], i32, i32, ptr, ptr, i32, i32, i32, i32, i32, [200 x i8], [200 x i32], [200 x i32], ptr, [100 x i32], i32, i32, ptr, i32, ptr, ptr, ptr, ptr, ptr, ptr, ptr, ptr, i32, i32, ptr, i32, [150 x %struct._tokenizer_mode], i32, i32, i32, i32 }
%struct._tokenizer_mode = type { i32, i32, i32, i8, i32, i32, ptr, ptr, i32, i64, i64, i64, i64, ptr, i32, i32 }
%struct._object = type { %union.anon, ptr }
%union.anon = type { i64 }
%struct.anon = type { i32, i32 }
%struct.PyASCIIObject = type { %struct._object, i64, i64, %struct.anon.0 }
%struct.anon.0 = type { i16, i16 }

@PyExc_SyntaxError = external global ptr, align 8
@.str.7 = private unnamed_addr constant [8 x i8] c"replace\00", align 1
@.str.8 = private unnamed_addr constant [2 x i8] c"\0A\00", align 1
@.str.9 = private unnamed_addr constant [12 x i8] c"(O(OiiNii))\00", align 1

; Function Attrs: alwaysinline nounwind uwtable
define internal i32 @_Py_IsImmortal(ptr noundef %0) #4 {
  %2 = alloca ptr, align 8
  store ptr %0, ptr %2, align 8, !tbaa !19
  %3 = load ptr, ptr %2, align 8, !tbaa !19
  %4 = getelementptr inbounds nuw %struct._object, ptr %3, i32 0, i32 0
  %5 = getelementptr inbounds nuw %struct.anon, ptr %4, i32 0, i32 0
  %6 = load i32, ptr %5, align 8, !tbaa !34
  %7 = icmp slt i32 %6, 0
  %8 = zext i1 %7 to i32
  ret i32 %8
}

; Function Attrs: inlinehint nounwind uwtable
define internal void @Py_XDECREF(ptr noundef %0) #5 {
  %2 = alloca ptr, align 8
  store ptr %0, ptr %2, align 8, !tbaa !19
  %3 = load ptr, ptr %2, align 8, !tbaa !19
  %4 = icmp ne ptr %3, null
  br i1 %4, label %5, label %7

5:                                                ; preds = %1
  %6 = load ptr, ptr %2, align 8, !tbaa !19
  call void @Py_DECREF(ptr noundef %6)
  br label %7

7:                                                ; preds = %5, %1
  ret void
}

; Function Attrs: alwaysinline nounwind uwtable
define internal void @Py_DECREF(ptr noundef %0) #4 {
  %2 = alloca ptr, align 8
  store ptr %0, ptr %2, align 8, !tbaa !19
  %3 = load ptr, ptr %2, align 8, !tbaa !19
  %4 = call i32 @_Py_IsImmortal(ptr noundef %3)
  %5 = icmp ne i32 %4, 0
  br i1 %5, label %6, label %7

6:                                                ; preds = %1
  br label %16

7:                                                ; preds = %1
  %8 = load ptr, ptr %2, align 8, !tbaa !19
  %9 = getelementptr inbounds nuw %struct._object, ptr %8, i32 0, i32 0
  %10 = getelementptr inbounds nuw %struct.anon, ptr %9, i32 0, i32 0
  %11 = load i32, ptr %10, align 8, !tbaa !34
  %12 = add i32 %11, -1
  store i32 %12, ptr %10, align 8, !tbaa !34
  %13 = icmp eq i32 %12, 0
  br i1 %13, label %14, label %16

14:                                               ; preds = %7
  %15 = load ptr, ptr %2, align 8, !tbaa !19
  call void @_Py_Dealloc(ptr noundef %15)
  br label %16

16:                                               ; preds = %6, %14, %7
  ret void
}

; Function Attrs: inlinehint nounwind uwtable
define internal i64 @PyUnicode_GET_LENGTH(ptr noundef %0) #5 {
  %2 = alloca ptr, align 8
  store ptr %0, ptr %2, align 8, !tbaa !19
  %3 = load ptr, ptr %2, align 8, !tbaa !19
  %4 = getelementptr inbounds nuw %struct.PyASCIIObject, ptr %3, i32 0, i32 1
  %5 = load i64, ptr %4, align 8, !tbaa !50
  ret i64 %5
}

; Function Attrs: nounwind uwtable
define internal i32 @_syntaxerror_range(ptr noundef %0, ptr noundef %1, i32 noundef %2, i32 noundef %3, ptr noundef %4) #0 {
  %6 = alloca i32, align 4
  %7 = alloca ptr, align 8
  %8 = alloca ptr, align 8
  %9 = alloca i32, align 4
  %10 = alloca i32, align 4
  %11 = alloca ptr, align 8
  %12 = alloca ptr, align 8
  %13 = alloca ptr, align 8
  %14 = alloca ptr, align 8
  %15 = alloca i64, align 8
  store ptr %0, ptr %7, align 8, !tbaa !4
  store ptr %1, ptr %8, align 8, !tbaa !9
  store i32 %2, ptr %9, align 4, !tbaa !11
  store i32 %3, ptr %10, align 4, !tbaa !11
  store ptr %4, ptr %11, align 8, !tbaa !13
  %16 = load ptr, ptr %7, align 8, !tbaa !4
  %17 = getelementptr inbounds nuw %struct.tok_state, ptr %16, i32 0, i32 8
  %18 = load i32, ptr %17, align 8, !tbaa !15
  %19 = icmp eq i32 %18, 17
  br i1 %19, label %20, label %21

20:                                               ; preds = %5
  store i32 64, ptr %6, align 4
  br label %110

21:                                               ; preds = %5
  call void @llvm.lifetime.start.p0(i64 8, ptr %12) #8
  call void @llvm.lifetime.start.p0(i64 8, ptr %13) #8
  call void @llvm.lifetime.start.p0(i64 8, ptr %14) #8
  %22 = load ptr, ptr %8, align 8, !tbaa !9
  %23 = load ptr, ptr %11, align 8, !tbaa !13
  %24 = call ptr @PyUnicode_FromFormatV(ptr noundef %22, ptr noundef %23)
  store ptr %24, ptr %12, align 8, !tbaa !19
  %25 = load ptr, ptr %12, align 8, !tbaa !19
  %26 = icmp ne ptr %25, null
  br i1 %26, label %28, label %27

27:                                               ; preds = %21
  br label %106

28:                                               ; preds = %21
  %29 = load ptr, ptr %7, align 8, !tbaa !4
  %30 = getelementptr inbounds nuw %struct.tok_state, ptr %29, i32 0, i32 31
  %31 = load ptr, ptr %30, align 8, !tbaa !20
  %32 = load ptr, ptr %7, align 8, !tbaa !4
  %33 = getelementptr inbounds nuw %struct.tok_state, ptr %32, i32 0, i32 1
  %34 = load ptr, ptr %33, align 8, !tbaa !21
  %35 = load ptr, ptr %7, align 8, !tbaa !4
  %36 = getelementptr inbounds nuw %struct.tok_state, ptr %35, i32 0, i32 31
  %37 = load ptr, ptr %36, align 8, !tbaa !20
  %38 = ptrtoint ptr %34 to i64
  %39 = ptrtoint ptr %37 to i64
  %40 = sub i64 %38, %39
  %41 = call ptr @PyUnicode_DecodeUTF8(ptr noundef %31, i64 noundef %40, ptr noundef @.str.7)
  store ptr %41, ptr %13, align 8, !tbaa !19
  %42 = load ptr, ptr %13, align 8, !tbaa !19
  %43 = icmp ne ptr %42, null
  br i1 %43, label %45, label %44

44:                                               ; preds = %28
  br label %106

45:                                               ; preds = %28
  %46 = load i32, ptr %9, align 4, !tbaa !11
  %47 = icmp eq i32 %46, -1
  br i1 %47, label %48, label %52

48:                                               ; preds = %45
  %49 = load ptr, ptr %13, align 8, !tbaa !19
  %50 = call i64 @PyUnicode_GET_LENGTH(ptr noundef %49)
  %51 = trunc i64 %50 to i32
  store i32 %51, ptr %9, align 4, !tbaa !11
  br label %52

52:                                               ; preds = %48, %45
  %53 = load i32, ptr %10, align 4, !tbaa !11
  %54 = icmp eq i32 %53, -1
  br i1 %54, label %55, label %57

55:                                               ; preds = %52
  %56 = load i32, ptr %9, align 4, !tbaa !11
  store i32 %56, ptr %10, align 4, !tbaa !11
  br label %57

57:                                               ; preds = %55, %52
  %58 = load ptr, ptr %7, align 8, !tbaa !4
  %59 = getelementptr inbounds nuw %struct.tok_state, ptr %58, i32 0, i32 31
  %60 = load ptr, ptr %59, align 8, !tbaa !20
  %61 = call i64 @strcspn(ptr noundef %60, ptr noundef @.str.8) #9
  store i64 %61, ptr %15, align 8, !tbaa !22
  %62 = load i64, ptr %15, align 8, !tbaa !22
  %63 = load ptr, ptr %7, align 8, !tbaa !4
  %64 = getelementptr inbounds nuw %struct.tok_state, ptr %63, i32 0, i32 1
  %65 = load ptr, ptr %64, align 8, !tbaa !21
  %66 = load ptr, ptr %7, align 8, !tbaa !4
  %67 = getelementptr inbounds nuw %struct.tok_state, ptr %66, i32 0, i32 31
  %68 = load ptr, ptr %67, align 8, !tbaa !20
  %69 = ptrtoint ptr %65 to i64
  %70 = ptrtoint ptr %68 to i64
  %71 = sub i64 %69, %70
  %72 = icmp ne i64 %62, %71
  br i1 %72, label %73, label %80

73:                                               ; preds = %57
  %74 = load ptr, ptr %13, align 8, !tbaa !19
  call void @Py_DECREF(ptr noundef %74)
  %75 = load ptr, ptr %7, align 8, !tbaa !4
  %76 = getelementptr inbounds nuw %struct.tok_state, ptr %75, i32 0, i32 31
  %77 = load ptr, ptr %76, align 8, !tbaa !20
  %78 = load i64, ptr %15, align 8, !tbaa !22
  %79 = call ptr @PyUnicode_DecodeUTF8(ptr noundef %77, i64 noundef %78, ptr noundef @.str.7)
  store ptr %79, ptr %13, align 8, !tbaa !19
  br label %80

80:                                               ; preds = %73, %57
  %81 = load ptr, ptr %13, align 8, !tbaa !19
  %82 = icmp ne ptr %81, null
  br i1 %82, label %84, label %83

83:                                               ; preds = %80
  br label %106

84:                                               ; preds = %80
  %85 = load ptr, ptr %12, align 8, !tbaa !19
  %86 = load ptr, ptr %7, align 8, !tbaa !4
  %87 = getelementptr inbounds nuw %struct.tok_state, ptr %86, i32 0, i32 25
  %88 = load ptr, ptr %87, align 8, !tbaa !24
  %89 = load ptr, ptr %7, align 8, !tbaa !4
  %90 = getelementptr inbounds nuw %struct.tok_state, ptr %89, i32 0, i32 17
  %91 = load i32, ptr %90, align 8, !tbaa !25
  %92 = load i32, ptr %9, align 4, !tbaa !11
  %93 = load ptr, ptr %13, align 8, !tbaa !19
  %94 = load ptr, ptr %7, align 8, !tbaa !4
  %95 = getelementptr inbounds nuw %struct.tok_state, ptr %94, i32 0, i32 17
  %96 = load i32, ptr %95, align 8, !tbaa !25
  %97 = load i32, ptr %10, align 4, !tbaa !11
  %98 = call ptr (ptr, ...) @Py_BuildValue(ptr noundef @.str.9, ptr noundef %85, ptr noundef %88, i32 noundef %91, i32 noundef %92, ptr noundef %93, i32 noundef %96, i32 noundef %97)
  store ptr %98, ptr %14, align 8, !tbaa !19
  %99 = load ptr, ptr %14, align 8, !tbaa !19
  %100 = icmp ne ptr %99, null
  br i1 %100, label %101, label %105

101:                                              ; preds = %84
  %102 = load ptr, ptr @PyExc_SyntaxError, align 8, !tbaa !19
  %103 = load ptr, ptr %14, align 8, !tbaa !19
  call void @PyErr_SetObject(ptr noundef %102, ptr noundef %103)
  %104 = load ptr, ptr %14, align 8, !tbaa !19
  call void @Py_DECREF(ptr noundef %104)
  br label %105

105:                                              ; preds = %101, %84
  br label %106

106:                                              ; preds = %105, %83, %44, %27
  %107 = load ptr, ptr %12, align 8, !tbaa !19
  call void @Py_XDECREF(ptr noundef %107)
  %108 = load ptr, ptr %7, align 8, !tbaa !4
  %109 = getelementptr inbounds nuw %struct.tok_state, ptr %108, i32 0, i32 8
  store i32 17, ptr %109, align 8, !tbaa !15
  store i32 64, ptr %6, align 4
  call void @llvm.lifetime.end.p0(i64 8, ptr %14) #8
  call void @llvm.lifetime.end.p0(i64 8, ptr %13) #8
  call void @llvm.lifetime.end.p0(i64 8, ptr %12) #8
  br label %110

110:                                              ; preds = %106, %20
  %111 = load i32, ptr %6, align 4
  ret i32 %111
}