; Function Attrs: nounwind uwtable
define internal fastcc void @_syntaxerror_range(ptr noundef captures(none) %0, ptr noundef %1, i32 noundef %2, i32 noundef %3, ptr noundef nonnull %4) unnamed_addr #0 {
  %6 = getelementptr inbounds nuw i8, ptr %0, i64 64
  %7 = load i32, ptr %6, align 8, !tbaa !4
  %8 = icmp eq i32 %7, 17
  br i1 %8, label %60, label %9

9:                                                ; preds = %5
  %10 = tail call ptr @PyUnicode_FromFormatV(ptr noundef %1, ptr noundef nonnull %4) #9
  %.not = icmp eq ptr %10, null
  br i1 %.not, label %Py_XDECREF.exit, label %11

11:                                               ; preds = %9
  %12 = getelementptr inbounds nuw i8, ptr %0, i64 2768
  %13 = load ptr, ptr %12, align 8, !tbaa !13
  %14 = getelementptr inbounds nuw i8, ptr %0, i64 8
  %15 = load ptr, ptr %14, align 8, !tbaa !14
  %16 = ptrtoint ptr %15 to i64
  %17 = ptrtoint ptr %13 to i64
  %18 = sub i64 %16, %17
  %19 = tail call ptr @PyUnicode_DecodeUTF8(ptr noundef %13, i64 noundef %18, ptr noundef nonnull @.str.7) #9
  %.not40 = icmp eq ptr %19, null
  br i1 %.not40, label %54, label %20

20:                                               ; preds = %11
  %21 = icmp eq i32 %2, -1
  br i1 %21, label %22, label %25

22:                                               ; preds = %20
  %23 = getelementptr i8, ptr %19, i64 16
  %.val = load i64, ptr %23, align 8, !tbaa !15
  %24 = trunc i64 %.val to i32
  br label %25

25:                                               ; preds = %22, %20
  %.032 = phi i32 [ %24, %22 ], [ %2, %20 ]
  %26 = icmp eq i32 %3, -1
  %spec.select = select i1 %26, i32 %.032, i32 %3
  %27 = load ptr, ptr %12, align 8, !tbaa !13
  %28 = tail call i64 @strcspn(ptr noundef %27, ptr noundef nonnull @.str.8) #10
  %29 = load ptr, ptr %14, align 8, !tbaa !14
  %30 = ptrtoint ptr %29 to i64
  %31 = ptrtoint ptr %27 to i64
  %32 = sub i64 %30, %31
  %.not41 = icmp eq i64 %28, %32
  br i1 %.not41, label %.thread, label %33

33:                                               ; preds = %25
  %34 = load i32, ptr %19, align 8, !tbaa !22
  %.not.i = icmp sgt i32 %34, -1
  br i1 %.not.i, label %35, label %39

35:                                               ; preds = %33
  %36 = add nsw i32 %34, -1
  store i32 %36, ptr %19, align 8, !tbaa !22
  %37 = icmp eq i32 %36, 0
  br i1 %37, label %38, label %39

38:                                               ; preds = %35
  tail call void @_Py_Dealloc(ptr noundef nonnull %19) #9
  br label %39

39:                                               ; preds = %38, %35, %33
  %40 = load ptr, ptr %12, align 8, !tbaa !13
  %41 = tail call ptr @PyUnicode_DecodeUTF8(ptr noundef %40, i64 noundef %28, ptr noundef nonnull @.str.7) #9
  %.not42 = icmp eq ptr %41, null
  br i1 %.not42, label %54, label %.thread

.thread:                                          ; preds = %25, %39
  %.03350 = phi ptr [ %41, %39 ], [ %19, %25 ]
  %42 = getelementptr inbounds nuw i8, ptr %0, i64 2336
  %43 = load ptr, ptr %42, align 8, !tbaa !23
  %44 = getelementptr inbounds nuw i8, ptr %0, i64 512
  %45 = load i32, ptr %44, align 8, !tbaa !24
  %46 = tail call ptr (ptr, ...) @Py_BuildValue(ptr noundef nonnull @.str.9, ptr noundef nonnull %10, ptr noundef %43, i32 noundef %45, i32 noundef %.032, ptr noundef nonnull %.03350, i32 noundef %45, i32 noundef %spec.select) #9
  %.not43 = icmp eq ptr %46, null
  br i1 %.not43, label %54, label %47

47:                                               ; preds = %.thread
  %48 = load ptr, ptr @PyExc_SyntaxError, align 8, !tbaa !25
  tail call void @PyErr_SetObject(ptr noundef %48, ptr noundef nonnull %46) #9
  %49 = load i32, ptr %46, align 8, !tbaa !22
  %.not.i44 = icmp sgt i32 %49, -1
  br i1 %.not.i44, label %50, label %54

50:                                               ; preds = %47
  %51 = add nsw i32 %49, -1
  store i32 %51, ptr %46, align 8, !tbaa !22
  %52 = icmp eq i32 %51, 0
  br i1 %52, label %53, label %54

53:                                               ; preds = %50
  tail call void @_Py_Dealloc(ptr noundef nonnull %46) #9
  br label %54

54:                                               ; preds = %53, %50, %47, %.thread, %39, %11
  %55 = load i32, ptr %10, align 8, !tbaa !22
  %.not.i.i = icmp sgt i32 %55, -1
  br i1 %.not.i.i, label %56, label %Py_XDECREF.exit

56:                                               ; preds = %54
  %57 = add nsw i32 %55, -1
  store i32 %57, ptr %10, align 8, !tbaa !22
  %58 = icmp eq i32 %57, 0
  br i1 %58, label %59, label %Py_XDECREF.exit

59:                                               ; preds = %56
  tail call void @_Py_Dealloc(ptr noundef nonnull %10) #9
  br label %Py_XDECREF.exit

Py_XDECREF.exit:                                  ; preds = %9, %54, %56, %59
  store i32 17, ptr %6, align 8, !tbaa !4
  br label %60

60:                                               ; preds = %5, %Py_XDECREF.exit
  ret void
}